target datalayout = "e-m:e-p270:32:32-p271:32:32-p272:64:64-i64:64-i128:128-f80:128-n8:16:32:64-S128"
target triple = "x86_64-pc-linux-gnu"

%struct.PSH_GlobalsRec_ = type { ptr, [2 x %struct.PSH_DimensionRec_], %struct.PSH_BluesRec_ }
%struct.PSH_DimensionRec_ = type { %struct.PSH_WidthsRec_, i64, i64 }
%struct.PSH_WidthsRec_ = type { i32, [16 x %struct.PSH_WidthRec_] }
%struct.PSH_WidthRec_ = type { i32, i64, i64 }
%struct.PSH_BluesRec_ = type { %struct.PSH_Blue_TableRec_, %struct.PSH_Blue_TableRec_, %struct.PSH_Blue_TableRec_, %struct.PSH_Blue_TableRec_, i64, i32, i32, i32, i8 }
%struct.PSH_Blue_TableRec_ = type { i32, [16 x %struct.PSH_Blue_ZoneRec_] }
%struct.PSH_Blue_ZoneRec_ = type { i32, i32, i32, i32, i64, i64, i64, i64 }

; Function Attrs: nounwind uwtable
define internal void @psh_globals_destroy(ptr noundef %0) #0 {
  %2 = alloca ptr, align 8
  %3 = alloca ptr, align 8
  store ptr %0, ptr %2, align 8
  %4 = load ptr, ptr %2, align 8
  %5 = icmp ne ptr %4, null
  br i1 %5, label %6, label %40

6:                                                ; preds = %1
  %7 = load ptr, ptr %2, align 8
  %8 = getelementptr inbounds %struct.PSH_GlobalsRec_, ptr %7, i32 0, i32 0
  %9 = load ptr, ptr %8, align 8
  store ptr %9, ptr %3, align 8
  %10 = load ptr, ptr %2, align 8
  %11 = getelementptr inbounds %struct.PSH_GlobalsRec_, ptr %10, i32 0, i32 1
  %12 = getelementptr inbounds [2 x %struct.PSH_DimensionRec_], ptr %11, i64 0, i64 0
  %13 = getelementptr inbounds %struct.PSH_DimensionRec_, ptr %12, i32 0, i32 0
  %14 = getelementptr inbounds %struct.PSH_WidthsRec_, ptr %13, i32 0, i32 0
  store i32 0, ptr %14, align 8
  %15 = load ptr, ptr %2, align 8
  %16 = getelementptr inbounds %struct.PSH_GlobalsRec_, ptr %15, i32 0, i32 1
  %17 = getelementptr inbounds [2 x %struct.PSH_DimensionRec_], ptr %16, i64 0, i64 1
  %18 = getelementptr inbounds %struct.PSH_DimensionRec_, ptr %17, i32 0, i32 0
  %19 = getelementptr inbounds %struct.PSH_WidthsRec_, ptr %18, i32 0, i32 0
  store i32 0, ptr %19, align 8
  %20 = load ptr, ptr %2, align 8
  %21 = getelementptr inbounds %struct.PSH_GlobalsRec_, ptr %20, i32 0, i32 2
  %22 = getelementptr inbounds %struct.PSH_BluesRec_, ptr %21, i32 0, i32 0
  %23 = getelementptr inbounds %struct.PSH_Blue_TableRec_, ptr %22, i32 0, i32 0
  store i32 0, ptr %23, align 8
  %24 = load ptr, ptr %2, align 8
  %25 = getelementptr inbounds %struct.PSH_GlobalsRec_, ptr %24, i32 0, i32 2
  %26 = getelementptr inbounds %struct.PSH_BluesRec_, ptr %25, i32 0, i32 1
  %27 = getelementptr inbounds %struct.PSH_Blue_TableRec_, ptr %26, i32 0, i32 0
  store i32 0, ptr %27, align 8
  %28 = load ptr, ptr %2, align 8
  %29 = getelementptr inbounds %struct.PSH_GlobalsRec_, ptr %28, i32 0, i32 2
  %30 = getelementptr inbounds %struct.PSH_BluesRec_, ptr %29, i32 0, i32 2
  %31 = getelementptr inbounds %struct.PSH_Blue_TableRec_, ptr %30, i32 0, i32 0
  store i32 0, ptr %31, align 8
  %32 = load ptr, ptr %2, align 8
  %33 = getelementptr inbounds %struct.PSH_GlobalsRec_, ptr %32, i32 0, i32 2
  %34 = getelementptr inbounds %struct.PSH_BluesRec_, ptr %33, i32 0, i32 3
  %35 = getelementptr inbounds %struct.PSH_Blue_TableRec_, ptr %34, i32 0, i32 0
  store i32 0, ptr %35, align 8
  br label %36

36:                                               ; preds = %6
  %37 = load ptr, ptr %3, align 8
  %38 = load ptr, ptr %2, align 8
  call void @ft_mem_free(ptr noundef %37, ptr noundef %38)
  store ptr null, ptr %2, align 8
  br label %39

39:                                               ; preds = %36
  br label %40

40:                                               ; preds = %39, %1
  ret void
}