; Function Attrs: nounwind uwtable
define internal void @psh_globals_destroy(ptr noundef %0) #0 {
  %.not = icmp eq ptr %0, null
  br i1 %.not, label %10, label %2

2:                                                ; preds = %1
  %3 = load ptr, ptr %0, align 8
  %4 = getelementptr inbounds i8, ptr %0, i64 8
  store i32 0, ptr %4, align 8
  %5 = getelementptr inbounds i8, ptr %0, i64 416
  store i32 0, ptr %5, align 8
  %6 = getelementptr inbounds i8, ptr %0, i64 824
  store i32 0, ptr %6, align 8
  %7 = getelementptr inbounds i8, ptr %0, i64 1600
  store i32 0, ptr %7, align 8
  %8 = getelementptr inbounds i8, ptr %0, i64 2376
  store i32 0, ptr %8, align 8
  %9 = getelementptr inbounds i8, ptr %0, i64 3152
  store i32 0, ptr %9, align 8
  tail call void @ft_mem_free(ptr noundef %3, ptr noundef nonnull %0) #11
  br label %10

10:                                               ; preds = %2, %1
  ret void
}